target datalayout = "e-m:e-p270:32:32-p271:32:32-p272:64:64-i64:64-i128:128-f80:128-n8:16:32:64-S128"
target triple = "x86_64-pc-linux-gnu"

; Function Attrs: nounwind uwtable
define internal void @mix6to2_s32(ptr noundef %0, ptr noundef %1, ptr noundef %2, i32 noundef %3) #0 {
  %5 = alloca ptr, align 8
  %6 = alloca ptr, align 8
  %7 = alloca ptr, align 8
  %8 = alloca i32, align 4
  %9 = alloca i32, align 4
  %10 = alloca i64, align 8
  store ptr %0, ptr %5, align 8, !tbaa !135
  store ptr %1, ptr %6, align 8, !tbaa !135
  store ptr %2, ptr %7, align 8, !tbaa !86
  store i32 %3, ptr %8, align 4, !tbaa !11
  call void @llvm.lifetime.start.p0(i64 4, ptr %9) #9
  store i32 0, ptr %9, align 4, !tbaa !11
  br label %11

11:                                               ; preds = %119, %4
  %12 = load i32, ptr %9, align 4, !tbaa !11
  %13 = load i32, ptr %8, align 4, !tbaa !11
  %14 = icmp slt i32 %12, %13
  br i1 %14, label %15, label %122

15:                                               ; preds = %11
  call void @llvm.lifetime.start.p0(i64 8, ptr %10) #9
  %16 = load ptr, ptr %6, align 8, !tbaa !135
  %17 = getelementptr inbounds ptr, ptr %16, i64 2
  %18 = load ptr, ptr %17, align 8, !tbaa !86
  %19 = load i32, ptr %9, align 4, !tbaa !11
  %20 = sext i32 %19 to i64
  %21 = getelementptr inbounds i32, ptr %18, i64 %20
  %22 = load i32, ptr %21, align 4, !tbaa !11
  %23 = sext i32 %22 to i64
  %24 = load ptr, ptr %7, align 8, !tbaa !86
  %25 = getelementptr inbounds i32, ptr %24, i64 2
  %26 = load i32, ptr %25, align 4, !tbaa !11
  %27 = sext i32 %26 to i64
  %28 = mul nsw i64 %23, %27
  %29 = load ptr, ptr %6, align 8, !tbaa !135
  %30 = getelementptr inbounds ptr, ptr %29, i64 3
  %31 = load ptr, ptr %30, align 8, !tbaa !86
  %32 = load i32, ptr %9, align 4, !tbaa !11
  %33 = sext i32 %32 to i64
  %34 = getelementptr inbounds i32, ptr %31, i64 %33
  %35 = load i32, ptr %34, align 4, !tbaa !11
  %36 = sext i32 %35 to i64
  %37 = load ptr, ptr %7, align 8, !tbaa !86
  %38 = getelementptr inbounds i32, ptr %37, i64 3
  %39 = load i32, ptr %38, align 4, !tbaa !11
  %40 = sext i32 %39 to i64
  %41 = mul nsw i64 %36, %40
  %42 = add nsw i64 %28, %41
  store i64 %42, ptr %10, align 8, !tbaa !37
  %43 = load i64, ptr %10, align 8, !tbaa !37
  %44 = load ptr, ptr %6, align 8, !tbaa !135
  %45 = getelementptr inbounds ptr, ptr %44, i64 0
  %46 = load ptr, ptr %45, align 8, !tbaa !86
  %47 = load i32, ptr %9, align 4, !tbaa !11
  %48 = sext i32 %47 to i64
  %49 = getelementptr inbounds i32, ptr %46, i64 %48
  %50 = load i32, ptr %49, align 4, !tbaa !11
  %51 = sext i32 %50 to i64
  %52 = load ptr, ptr %7, align 8, !tbaa !86
  %53 = getelementptr inbounds i32, ptr %52, i64 0
  %54 = load i32, ptr %53, align 4, !tbaa !11
  %55 = sext i32 %54 to i64
  %56 = mul nsw i64 %51, %55
  %57 = add nsw i64 %43, %56
  %58 = load ptr, ptr %6, align 8, !tbaa !135
  %59 = getelementptr inbounds ptr, ptr %58, i64 4
  %60 = load ptr, ptr %59, align 8, !tbaa !86
  %61 = load i32, ptr %9, align 4, !tbaa !11
  %62 = sext i32 %61 to i64
  %63 = getelementptr inbounds i32, ptr %60, i64 %62
  %64 = load i32, ptr %63, align 4, !tbaa !11
  %65 = sext i32 %64 to i64
  %66 = load ptr, ptr %7, align 8, !tbaa !86
  %67 = getelementptr inbounds i32, ptr %66, i64 4
  %68 = load i32, ptr %67, align 4, !tbaa !11
  %69 = sext i32 %68 to i64
  %70 = mul nsw i64 %65, %69
  %71 = add nsw i64 %57, %70
  %72 = add nsw i64 %71, 16384
  %73 = ashr i64 %72, 15
  %74 = trunc i64 %73 to i32
  %75 = load ptr, ptr %5, align 8, !tbaa !135
  %76 = getelementptr inbounds ptr, ptr %75, i64 0
  %77 = load ptr, ptr %76, align 8, !tbaa !86
  %78 = load i32, ptr %9, align 4, !tbaa !11
  %79 = sext i32 %78 to i64
  %80 = getelementptr inbounds i32, ptr %77, i64 %79
  store i32 %74, ptr %80, align 4, !tbaa !11
  %81 = load i64, ptr %10, align 8, !tbaa !37
  %82 = load ptr, ptr %6, align 8, !tbaa !135
  %83 = getelementptr inbounds ptr, ptr %82, i64 1
  %84 = load ptr, ptr %83, align 8, !tbaa !86
  %85 = load i32, ptr %9, align 4, !tbaa !11
  %86 = sext i32 %85 to i64
  %87 = getelementptr inbounds i32, ptr %84, i64 %86
  %88 = load i32, ptr %87, align 4, !tbaa !11
  %89 = sext i32 %88 to i64
  %90 = load ptr, ptr %7, align 8, !tbaa !86
  %91 = getelementptr inbounds i32, ptr %90, i64 7
  %92 = load i32, ptr %91, align 4, !tbaa !11
  %93 = sext i32 %92 to i64
  %94 = mul nsw i64 %89, %93
  %95 = add nsw i64 %81, %94
  %96 = load ptr, ptr %6, align 8, !tbaa !135
  %97 = getelementptr inbounds ptr, ptr %96, i64 5
  %98 = load ptr, ptr %97, align 8, !tbaa !86
  %99 = load i32, ptr %9, align 4, !tbaa !11
  %100 = sext i32 %99 to i64
  %101 = getelementptr inbounds i32, ptr %98, i64 %100
  %102 = load i32, ptr %101, align 4, !tbaa !11
  %103 = sext i32 %102 to i64
  %104 = load ptr, ptr %7, align 8, !tbaa !86
  %105 = getelementptr inbounds i32, ptr %104, i64 11
  %106 = load i32, ptr %105, align 4, !tbaa !11
  %107 = sext i32 %106 to i64
  %108 = mul nsw i64 %103, %107
  %109 = add nsw i64 %95, %108
  %110 = add nsw i64 %109, 16384
  %111 = ashr i64 %110, 15
  %112 = trunc i64 %111 to i32
  %113 = load ptr, ptr %5, align 8, !tbaa !135
  %114 = getelementptr inbounds ptr, ptr %113, i64 1
  %115 = load ptr, ptr %114, align 8, !tbaa !86
  %116 = load i32, ptr %9, align 4, !tbaa !11
  %117 = sext i32 %116 to i64
  %118 = getelementptr inbounds i32, ptr %115, i64 %117
  store i32 %112, ptr %118, align 4, !tbaa !11
  call void @llvm.lifetime.end.p0(i64 8, ptr %10) #9
  br label %119

119:                                              ; preds = %15
  %120 = load i32, ptr %9, align 4, !tbaa !11
  %121 = add nsw i32 %120, 1
  store i32 %121, ptr %9, align 4, !tbaa !11
  br label %11, !llvm.loop !137

122:                                              ; preds = %11
  call void @llvm.lifetime.end.p0(i64 4, ptr %9) #9
  ret void
}