; Function Attrs: nofree norecurse nosync nounwind memory(readwrite, inaccessiblemem: none) uwtable
define internal void @mix6to2_s32(ptr noundef readonly captures(none) %0, ptr noundef readonly captures(none) %1, ptr noundef readonly captures(none) %2, i32 noundef %3) #9 {
  %5 = icmp sgt i32 %3, 0
  br i1 %5, label %.lr.ph, label %._crit_edge

.lr.ph:                                           ; preds = %4
  %6 = getelementptr inbounds nuw i8, ptr %1, i64 16
  %7 = load ptr, ptr %6, align 8, !tbaa !119
  %8 = getelementptr inbounds nuw i8, ptr %2, i64 8
  %9 = getelementptr inbounds nuw i8, ptr %1, i64 24
  %10 = load ptr, ptr %9, align 8, !tbaa !119
  %11 = getelementptr inbounds nuw i8, ptr %2, i64 12
  %12 = load ptr, ptr %1, align 8, !tbaa !119
  %13 = getelementptr inbounds nuw i8, ptr %1, i64 32
  %14 = load ptr, ptr %13, align 8, !tbaa !119
  %15 = getelementptr inbounds nuw i8, ptr %2, i64 16
  %16 = load ptr, ptr %0, align 8, !tbaa !119
  %17 = getelementptr inbounds nuw i8, ptr %1, i64 8
  %18 = load ptr, ptr %17, align 8, !tbaa !119
  %19 = getelementptr inbounds nuw i8, ptr %2, i64 28
  %20 = getelementptr inbounds nuw i8, ptr %1, i64 40
  %21 = load ptr, ptr %20, align 8, !tbaa !119
  %22 = getelementptr inbounds nuw i8, ptr %2, i64 44
  %23 = getelementptr inbounds nuw i8, ptr %0, i64 8
  %24 = load ptr, ptr %23, align 8, !tbaa !119
  %wide.trip.count = zext nneg i32 %3 to i64
  br label %25

25:                                               ; preds = %.lr.ph, %25
  %indvars.iv = phi i64 [ 0, %.lr.ph ], [ %indvars.iv.next, %25 ]
  %26 = getelementptr inbounds nuw i32, ptr %7, i64 %indvars.iv
  %27 = load i32, ptr %26, align 4, !tbaa !34
  %28 = sext i32 %27 to i64
  %29 = load i32, ptr %8, align 4, !tbaa !34
  %30 = sext i32 %29 to i64
  %31 = mul nsw i64 %30, %28
  %32 = getelementptr inbounds nuw i32, ptr %10, i64 %indvars.iv
  %33 = load i32, ptr %32, align 4, !tbaa !34
  %34 = sext i32 %33 to i64
  %35 = load i32, ptr %11, align 4, !tbaa !34
  %36 = sext i32 %35 to i64
  %37 = mul nsw i64 %36, %34
  %38 = add nsw i64 %37, %31
  %39 = getelementptr inbounds nuw i32, ptr %12, i64 %indvars.iv
  %40 = load i32, ptr %39, align 4, !tbaa !34
  %41 = sext i32 %40 to i64
  %42 = load i32, ptr %2, align 4, !tbaa !34
  %43 = sext i32 %42 to i64
  %44 = mul nsw i64 %43, %41
  %45 = getelementptr inbounds nuw i32, ptr %14, i64 %indvars.iv
  %46 = load i32, ptr %45, align 4, !tbaa !34
  %47 = sext i32 %46 to i64
  %48 = load i32, ptr %15, align 4, !tbaa !34
  %49 = sext i32 %48 to i64
  %50 = mul nsw i64 %49, %47
  %51 = add i64 %38, 16384
  %52 = add i64 %51, %44
  %53 = add i64 %52, %50
  %54 = lshr i64 %53, 15
  %55 = trunc i64 %54 to i32
  %56 = getelementptr inbounds nuw i32, ptr %16, i64 %indvars.iv
  store i32 %55, ptr %56, align 4, !tbaa !34
  %57 = getelementptr inbounds nuw i32, ptr %18, i64 %indvars.iv
  %58 = load i32, ptr %57, align 4, !tbaa !34
  %59 = sext i32 %58 to i64
  %60 = load i32, ptr %19, align 4, !tbaa !34
  %61 = sext i32 %60 to i64
  %62 = mul nsw i64 %61, %59
  %63 = getelementptr inbounds nuw i32, ptr %21, i64 %indvars.iv
  %64 = load i32, ptr %63, align 4, !tbaa !34
  %65 = sext i32 %64 to i64
  %66 = load i32, ptr %22, align 4, !tbaa !34
  %67 = sext i32 %66 to i64
  %68 = mul nsw i64 %67, %65
  %69 = add i64 %51, %62
  %70 = add i64 %69, %68
  %71 = lshr i64 %70, 15
  %72 = trunc i64 %71 to i32
  %73 = getelementptr inbounds nuw i32, ptr %24, i64 %indvars.iv
  store i32 %72, ptr %73, align 4, !tbaa !34
  %indvars.iv.next = add nuw nsw i64 %indvars.iv, 1
  %exitcond.not = icmp eq i64 %indvars.iv.next, %wide.trip.count
  br i1 %exitcond.not, label %._crit_edge, label %25, !llvm.loop !120

._crit_edge:                                      ; preds = %25, %4
  ret void
}